target datalayout = "e-m:e-p270:32:32-p271:32:32-p272:64:64-i64:64-i128:128-f80:128-n8:16:32:64-S128"
target triple = "x86_64-unknown-linux-gnu"

%"class.net::SourceAddressToken" = type { %"class.google::protobuf::MessageLite", %"struct.google::protobuf::internal::ArenaStringPtr", ptr, [1 x i32], i32, %"struct.google::protobuf::internal::ArenaStringPtr", i64, ptr }
%"class.google::protobuf::MessageLite" = type { ptr }
%"struct.google::protobuf::internal::ArenaStringPtr" = type { ptr }

@_ZN6google8protobuf8internal13empty_string_B5cxx11E = external global ptr, align 8

; Function Attrs: mustprogress uwtable
define linkonce_odr dso_local noundef i32 @_ZN6google8protobuf8internal14WireFormatLite19LengthDelimitedSizeEi(i32 noundef %length) #1 comdat align 2 {
entry:
  %length.addr = alloca i32, align 4
  store i32 %length, ptr %length.addr, align 4
  %0 = load i32, ptr %length.addr, align 4
  %call = call noundef i32 @_ZN6google8protobuf2io17CodedOutputStream12VarintSize32Ej(i32 noundef %0)
  %1 = load i32, ptr %length.addr, align 4
  %add = add nsw i32 %call, %1
  ret i32 %add
}

; Function Attrs: mustprogress nounwind uwtable
define linkonce_odr dso_local noundef zeroext i1 @_ZNK3net18SourceAddressToken13has_timestampEv(ptr noundef nonnull align 8 dereferenceable(56) %this) #0 comdat align 2 {
entry:
  %this.addr = alloca ptr, align 8
  store ptr %this, ptr %this.addr, align 8
  %this1 = load ptr, ptr %this.addr, align 8
  %_has_bits_ = getelementptr inbounds %"class.net::SourceAddressToken", ptr %this1, i32 0, i32 3
  %arrayidx = getelementptr inbounds [1 x i32], ptr %_has_bits_, i64 0, i64 0
  %0 = load i32, ptr %arrayidx, align 8
  %and = and i32 %0, 2
  %cmp = icmp ne i32 %and, 0
  ret i1 %cmp
}

; Function Attrs: mustprogress nounwind uwtable
define linkonce_odr dso_local noundef zeroext i1 @_ZNK3net18SourceAddressToken6has_ipEv(ptr noundef nonnull align 8 dereferenceable(56) %this) #0 comdat align 2 {
entry:
  %this.addr = alloca ptr, align 8
  store ptr %this, ptr %this.addr, align 8
  %this1 = load ptr, ptr %this.addr, align 8
  %_has_bits_ = getelementptr inbounds %"class.net::SourceAddressToken", ptr %this1, i32 0, i32 3
  %arrayidx = getelementptr inbounds [1 x i32], ptr %_has_bits_, i64 0, i64 0
  %0 = load i32, ptr %arrayidx, align 8
  %and = and i32 %0, 1
  %cmp = icmp ne i32 %and, 0
  ret i1 %cmp
}

; Function Attrs: mustprogress uwtable
define linkonce_odr dso_local noundef i32 @_ZN6google8protobuf2io17CodedOutputStream12VarintSize32Ej(i32 noundef %value) #1 comdat align 2 {
entry:
  %retval = alloca i32, align 4
  %value.addr = alloca i32, align 4
  store i32 %value, ptr %value.addr, align 4
  %0 = load i32, ptr %value.addr, align 4
  %cmp = icmp ult i32 %0, 128
  br i1 %cmp, label %if.then, label %if.else

if.then:                                          ; preds = %entry
  store i32 1, ptr %retval, align 4
  br label %return

if.else:                                          ; preds = %entry
  %1 = load i32, ptr %value.addr, align 4
  %call = call noundef i32 @_ZN6google8protobuf2io17CodedOutputStream20VarintSize32FallbackEj(i32 noundef %1)
  store i32 %call, ptr %retval, align 4
  br label %return

return:                                           ; preds = %if.else, %if.then
  %2 = load i32, ptr %retval, align 4
  ret i32 %2
}

; Function Attrs: mustprogress nounwind uwtable
define linkonce_odr dso_local noundef nonnull align 8 dereferenceable(32) ptr @_ZNK6google8protobuf8internal14ArenaStringPtr10GetNoArenaEPKNSt7__cxx1112basic_stringIcSt11char_traitsIcESaIcEEE(ptr noundef nonnull align 8 dereferenceable(8) %this, ptr noundef %0) #0 comdat align 2 {
entry:
  %this.addr = alloca ptr, align 8
  %.addr = alloca ptr, align 8
  store ptr %this, ptr %this.addr, align 8
  store ptr %0, ptr %.addr, align 8
  %this1 = load ptr, ptr %this.addr, align 8
  %ptr_ = getelementptr inbounds %"struct.google::protobuf::internal::ArenaStringPtr", ptr %this1, i32 0, i32 0
  %1 = load ptr, ptr %ptr_, align 8
  ret ptr %1
}

; Function Attrs: mustprogress nounwind uwtable
define linkonce_odr dso_local noundef nonnull align 8 dereferenceable(32) ptr @_ZN6google8protobuf8internal27GetEmptyStringAlreadyInitedB5cxx11Ev() #0 comdat {
entry:
  %0 = load ptr, ptr @_ZN6google8protobuf8internal13empty_string_B5cxx11E, align 8
  ret ptr %0
}

; Function Attrs: mustprogress nounwind uwtable
define linkonce_odr dso_local noundef nonnull align 8 dereferenceable(32) ptr @_ZNK3net18SourceAddressToken14unknown_fieldsB5cxx11Ev(ptr noundef nonnull align 8 dereferenceable(56) %this) #0 comdat align 2 {
entry:
  %this.addr = alloca ptr, align 8
  store ptr %this, ptr %this.addr, align 8
  %this1 = load ptr, ptr %this.addr, align 8
  %_unknown_fields_ = getelementptr inbounds %"class.net::SourceAddressToken", ptr %this1, i32 0, i32 1
  %call = call noundef nonnull align 8 dereferenceable(32) ptr @_ZN6google8protobuf8internal27GetEmptyStringAlreadyInitedB5cxx11Ev()
  %call2 = call noundef nonnull align 8 dereferenceable(32) ptr @_ZNK6google8protobuf8internal14ArenaStringPtr10GetNoArenaEPKNSt7__cxx1112basic_stringIcSt11char_traitsIcESaIcEEE(ptr noundef nonnull align 8 dereferenceable(8) %_unknown_fields_, ptr noundef %call)
  ret ptr %call2
}

; Function Attrs: mustprogress uwtable
define linkonce_odr dso_local noundef i32 @_ZN6google8protobuf8internal14WireFormatLite20MessageSizeNoVirtualIN3net23CachedNetworkParametersEEEiRKT_(ptr noundef nonnull align 8 dereferenceable(72) %value) #1 comdat align 2 {
entry:
  %value.addr = alloca ptr, align 8
  store ptr %value, ptr %value.addr, align 8
  %0 = load ptr, ptr %value.addr, align 8
  %call = call noundef i32 @_ZNK3net23CachedNetworkParameters8ByteSizeEv(ptr noundef nonnull align 8 dereferenceable(72) %0)
  %call1 = call noundef i32 @_ZN6google8protobuf8internal14WireFormatLite19LengthDelimitedSizeEi(i32 noundef %call)
  ret i32 %call1
}

; Function Attrs: mustprogress nounwind uwtable
define linkonce_odr dso_local noundef zeroext i1 @_ZNK3net18SourceAddressToken29has_cached_network_parametersEv(ptr noundef nonnull align 8 dereferenceable(56) %this) #0 comdat align 2 {
entry:
  %this.addr = alloca ptr, align 8
  store ptr %this, ptr %this.addr, align 8
  %this1 = load ptr, ptr %this.addr, align 8
  %_has_bits_ = getelementptr inbounds %"class.net::SourceAddressToken", ptr %this1, i32 0, i32 3
  %arrayidx = getelementptr inbounds [1 x i32], ptr %_has_bits_, i64 0, i64 0
  %0 = load i32, ptr %arrayidx, align 8
  %and = and i32 %0, 4
  %cmp = icmp ne i32 %and, 0
  ret i1 %cmp
}

; Function Attrs: mustprogress uwtable
define dso_local noundef i32 @_ZNK3net18SourceAddressToken30RequiredFieldsByteSizeFallbackEv(ptr noundef nonnull align 8 dereferenceable(56) %this) #1 align 2 {
entry:
  %this.addr = alloca ptr, align 8
  %total_size = alloca i32, align 4
  store ptr %this, ptr %this.addr, align 8
  %this1 = load ptr, ptr %this.addr, align 8
  store i32 0, ptr %total_size, align 4
  %call = call noundef zeroext i1 @_ZNK3net18SourceAddressToken6has_ipEv(ptr noundef nonnull align 8 dereferenceable(56) %this1)
  br i1 %call, label %if.then, label %if.end

if.then:                                          ; preds = %entry
  %call2 = call noundef nonnull align 8 dereferenceable(32) ptr @_ZNK3net18SourceAddressToken2ipB5cxx11Ev(ptr noundef nonnull align 8 dereferenceable(56) %this1)
  %call3 = call noundef i32 @_ZN6google8protobuf8internal14WireFormatLite9BytesSizeERKNSt7__cxx1112basic_stringIcSt11char_traitsIcESaIcEEE(ptr noundef nonnull align 8 dereferenceable(32) %call2)
  %add = add nsw i32 1, %call3
  %0 = load i32, ptr %total_size, align 4
  %add4 = add nsw i32 %0, %add
  store i32 %add4, ptr %total_size, align 4
  br label %if.end

if.end:                                           ; preds = %if.then, %entry
  %call5 = call noundef zeroext i1 @_ZNK3net18SourceAddressToken13has_timestampEv(ptr noundef nonnull align 8 dereferenceable(56) %this1)
  br i1 %call5, label %if.then6, label %if.end11

if.then6:                                         ; preds = %if.end
  %call7 = call noundef i64 @_ZNK3net18SourceAddressToken9timestampEv(ptr noundef nonnull align 8 dereferenceable(56) %this1)
  %call8 = call noundef i32 @_ZN6google8protobuf8internal14WireFormatLite9Int64SizeEl(i64 noundef %call7)
  %add9 = add nsw i32 1, %call8
  %1 = load i32, ptr %total_size, align 4
  %add10 = add nsw i32 %1, %add9
  store i32 %add10, ptr %total_size, align 4
  br label %if.end11

if.end11:                                         ; preds = %if.then6, %if.end
  %2 = load i32, ptr %total_size, align 4
  ret i32 %2
}

; Function Attrs: mustprogress uwtable
define linkonce_odr dso_local noundef i32 @_ZN6google8protobuf8internal14WireFormatLite9Int64SizeEl(i64 noundef %value) #1 comdat align 2 {
entry:
  %value.addr = alloca i64, align 8
  store i64 %value, ptr %value.addr, align 8
  %0 = load i64, ptr %value.addr, align 8
  %call = call noundef i32 @_ZN6google8protobuf2io17CodedOutputStream12VarintSize64Em(i64 noundef %0)
  ret i32 %call
}

; Function Attrs: mustprogress nounwind uwtable
define linkonce_odr dso_local noundef i64 @_ZNK3net18SourceAddressToken9timestampEv(ptr noundef nonnull align 8 dereferenceable(56) %this) #0 comdat align 2 {
entry:
  %this.addr = alloca ptr, align 8
  store ptr %this, ptr %this.addr, align 8
  %this1 = load ptr, ptr %this.addr, align 8
  %timestamp_ = getelementptr inbounds %"class.net::SourceAddressToken", ptr %this1, i32 0, i32 6
  %0 = load i64, ptr %timestamp_, align 8
  ret i64 %0
}

; Function Attrs: mustprogress uwtable
define linkonce_odr dso_local noundef i32 @_ZN6google8protobuf8internal14WireFormatLite9BytesSizeERKNSt7__cxx1112basic_stringIcSt11char_traitsIcESaIcEEE(ptr noundef nonnull align 8 dereferenceable(32) %value) #1 comdat align 2 {
entry:
  %value.addr = alloca ptr, align 8
  store ptr %value, ptr %value.addr, align 8
  %0 = load ptr, ptr %value.addr, align 8
  %call = call noundef i64 @_ZNKSt7__cxx1112basic_stringIcSt11char_traitsIcESaIcEE4sizeEv(ptr noundef nonnull align 8 dereferenceable(32) %0) #12
  %conv = trunc i64 %call to i32
  %call1 = call noundef i32 @_ZN6google8protobuf2io17CodedOutputStream12VarintSize32Ej(i32 noundef %conv)
  %conv2 = sext i32 %call1 to i64
  %1 = load ptr, ptr %value.addr, align 8
  %call3 = call noundef i64 @_ZNKSt7__cxx1112basic_stringIcSt11char_traitsIcESaIcEE4sizeEv(ptr noundef nonnull align 8 dereferenceable(32) %1) #12
  %add = add i64 %conv2, %call3
  %conv4 = trunc i64 %add to i32
  ret i32 %conv4
}

; Function Attrs: mustprogress uwtable
define linkonce_odr dso_local noundef nonnull align 8 dereferenceable(32) ptr @_ZNK3net18SourceAddressToken2ipB5cxx11Ev(ptr noundef nonnull align 8 dereferenceable(56) %this) #1 comdat align 2 {
entry:
  %this.addr = alloca ptr, align 8
  store ptr %this, ptr %this.addr, align 8
  %this1 = load ptr, ptr %this.addr, align 8
  %ip_ = getelementptr inbounds %"class.net::SourceAddressToken", ptr %this1, i32 0, i32 5
  %call = call noundef nonnull align 8 dereferenceable(32) ptr @_ZN6google8protobuf8internal27GetEmptyStringAlreadyInitedB5cxx11Ev()
  %call2 = call noundef nonnull align 8 dereferenceable(32) ptr @_ZNK6google8protobuf8internal14ArenaStringPtr10GetNoArenaEPKNSt7__cxx1112basic_stringIcSt11char_traitsIcESaIcEEE(ptr noundef nonnull align 8 dereferenceable(8) %ip_, ptr noundef %call)
  ret ptr %call2
}

; Function Attrs: mustprogress uwtable
define dso_local noundef i32 @_ZNK3net18SourceAddressToken8ByteSizeEv(ptr noundef nonnull align 8 dereferenceable(56) %this) unnamed_addr #1 align 2 {
entry:
  %this.addr = alloca ptr, align 8
  %total_size = alloca i32, align 4
  store ptr %this, ptr %this.addr, align 8
  %this1 = load ptr, ptr %this.addr, align 8
  store i32 0, ptr %total_size, align 4
  %_has_bits_ = getelementptr inbounds %"class.net::SourceAddressToken", ptr %this1, i32 0, i32 3
  %arrayidx = getelementptr inbounds [1 x i32], ptr %_has_bits_, i64 0, i64 0
  %0 = load i32, ptr %arrayidx, align 8
  %and = and i32 %0, 3
  %xor = xor i32 %and, 3
  %cmp = icmp eq i32 %xor, 0
  br i1 %cmp, label %if.then, label %if.else

if.then:                                          ; preds = %entry
  %call = call noundef nonnull align 8 dereferenceable(32) ptr @_ZNK3net18SourceAddressToken2ipB5cxx11Ev(ptr noundef nonnull align 8 dereferenceable(56) %this1)
  %call2 = call noundef i32 @_ZN6google8protobuf8internal14WireFormatLite9BytesSizeERKNSt7__cxx1112basic_stringIcSt11char_traitsIcESaIcEEE(ptr noundef nonnull align 8 dereferenceable(32) %call)
  %add = add nsw i32 1, %call2
  %1 = load i32, ptr %total_size, align 4
  %add3 = add nsw i32 %1, %add
  store i32 %add3, ptr %total_size, align 4
  %call4 = call noundef i64 @_ZNK3net18SourceAddressToken9timestampEv(ptr noundef nonnull align 8 dereferenceable(56) %this1)
  %call5 = call noundef i32 @_ZN6google8protobuf8internal14WireFormatLite9Int64SizeEl(i64 noundef %call4)
  %add6 = add nsw i32 1, %call5
  %2 = load i32, ptr %total_size, align 4
  %add7 = add nsw i32 %2, %add6
  store i32 %add7, ptr %total_size, align 4
  br label %if.end

if.else:                                          ; preds = %entry
  %call8 = call noundef i32 @_ZNK3net18SourceAddressToken30RequiredFieldsByteSizeFallbackEv(ptr noundef nonnull align 8 dereferenceable(56) %this1)
  %3 = load i32, ptr %total_size, align 4
  %add9 = add nsw i32 %3, %call8
  store i32 %add9, ptr %total_size, align 4
  br label %if.end

if.end:                                           ; preds = %if.else, %if.then
  %call10 = call noundef zeroext i1 @_ZNK3net18SourceAddressToken29has_cached_network_parametersEv(ptr noundef nonnull align 8 dereferenceable(56) %this1)
  br i1 %call10, label %if.then11, label %if.end15

if.then11:                                        ; preds = %if.end
  %cached_network_parameters_ = getelementptr inbounds %"class.net::SourceAddressToken", ptr %this1, i32 0, i32 7
  %4 = load ptr, ptr %cached_network_parameters_, align 8
  %call12 = call noundef i32 @_ZN6google8protobuf8internal14WireFormatLite20MessageSizeNoVirtualIN3net23CachedNetworkParametersEEEiRKT_(ptr noundef nonnull align 8 dereferenceable(72) %4)
  %add13 = add nsw i32 1, %call12
  %5 = load i32, ptr %total_size, align 4
  %add14 = add nsw i32 %5, %add13
  store i32 %add14, ptr %total_size, align 4
  br label %if.end15

if.end15:                                         ; preds = %if.then11, %if.end
  %call16 = call noundef nonnull align 8 dereferenceable(32) ptr @_ZNK3net18SourceAddressToken14unknown_fieldsB5cxx11Ev(ptr noundef nonnull align 8 dereferenceable(56) %this1)
  %call17 = call noundef i64 @_ZNKSt7__cxx1112basic_stringIcSt11char_traitsIcESaIcEE4sizeEv(ptr noundef nonnull align 8 dereferenceable(32) %call16) #12
  %6 = load i32, ptr %total_size, align 4
  %conv = sext i32 %6 to i64
  %add18 = add i64 %conv, %call17
  %conv19 = trunc i64 %add18 to i32
  store i32 %conv19, ptr %total_size, align 4
  %7 = load i32, ptr %total_size, align 4
  %_cached_size_ = getelementptr inbounds %"class.net::SourceAddressToken", ptr %this1, i32 0, i32 4
  store i32 %7, ptr %_cached_size_, align 4
  %8 = load i32, ptr %total_size, align 4
  ret i32 %8
}