; Function Attrs: mustprogress uwtable
define dso_local noundef i32 @_ZNK3net18SourceAddressToken8ByteSizeEv(ptr nocapture noundef nonnull align 8 dereferenceable(56) %this) unnamed_addr #1 align 2 {
entry:
  %_has_bits_ = getelementptr inbounds i8, ptr %this, i64 24
  %0 = load i32, ptr %_has_bits_, align 8
  %and = and i32 %0, 3
  %cmp = icmp eq i32 %and, 3
  br i1 %cmp, label %if.then, label %if.else

if.then:                                          ; preds = %entry
  %ip_.i = getelementptr inbounds i8, ptr %this, i64 32
  %1 = load ptr, ptr %ip_.i, align 8
  %call.i = tail call noundef i64 @_ZNKSt7__cxx1112basic_stringIcSt11char_traitsIcESaIcEE4sizeEv(ptr noundef nonnull align 8 dereferenceable(32) %1) #14
  %conv.i = trunc i64 %call.i to i32
  %cmp.i.i = icmp ult i32 %conv.i, 128
  br i1 %cmp.i.i, label %_ZN6google8protobuf8internal14WireFormatLite9BytesSizeERKNSt7__cxx1112basic_stringIcSt11char_traitsIcESaIcEEE.exit, label %if.else.i.i

if.else.i.i:                                      ; preds = %if.then
  %call.i.i = tail call noundef i32 @_ZN6google8protobuf2io17CodedOutputStream20VarintSize32FallbackEj(i32 noundef %conv.i)
  %2 = add i32 %call.i.i, 2
  br label %_ZN6google8protobuf8internal14WireFormatLite9BytesSizeERKNSt7__cxx1112basic_stringIcSt11char_traitsIcESaIcEEE.exit

_ZN6google8protobuf8internal14WireFormatLite9BytesSizeERKNSt7__cxx1112basic_stringIcSt11char_traitsIcESaIcEEE.exit: ; preds = %if.then, %if.else.i.i
  %retval.0.i.i = phi i32 [ %2, %if.else.i.i ], [ 3, %if.then ]
  %call3.i = tail call noundef i64 @_ZNKSt7__cxx1112basic_stringIcSt11char_traitsIcESaIcEE4sizeEv(ptr noundef nonnull align 8 dereferenceable(32) %1) #14
  %3 = trunc i64 %call3.i to i32
  %timestamp_.i = getelementptr inbounds i8, ptr %this, i64 40
  %4 = load i64, ptr %timestamp_.i, align 8
  %call.i7 = tail call noundef i32 @_ZN6google8protobuf2io17CodedOutputStream12VarintSize64Em(i64 noundef %4)
  %add6 = add i32 %retval.0.i.i, %3
  %add7 = add i32 %add6, %call.i7
  br label %if.end

if.else:                                          ; preds = %entry
  %and.i.i = and i32 %0, 1
  %cmp.i.not.i = icmp eq i32 %and.i.i, 0
  br i1 %cmp.i.not.i, label %if.end.i, label %if.then.i

if.then.i:                                        ; preds = %if.else
  %ip_.i.i = getelementptr inbounds i8, ptr %this, i64 32
  %5 = load ptr, ptr %ip_.i.i, align 8
  %call.i.i8 = tail call noundef i64 @_ZNKSt7__cxx1112basic_stringIcSt11char_traitsIcESaIcEE4sizeEv(ptr noundef nonnull align 8 dereferenceable(32) %5) #14
  %conv.i.i = trunc i64 %call.i.i8 to i32
  %cmp.i.i.i = icmp ult i32 %conv.i.i, 128
  br i1 %cmp.i.i.i, label %_ZN6google8protobuf8internal14WireFormatLite9BytesSizeERKNSt7__cxx1112basic_stringIcSt11char_traitsIcESaIcEEE.exit.i, label %if.else.i.i.i

if.else.i.i.i:                                    ; preds = %if.then.i
  %call.i.i.i = tail call noundef i32 @_ZN6google8protobuf2io17CodedOutputStream20VarintSize32FallbackEj(i32 noundef %conv.i.i)
  %6 = add i32 %call.i.i.i, 1
  br label %_ZN6google8protobuf8internal14WireFormatLite9BytesSizeERKNSt7__cxx1112basic_stringIcSt11char_traitsIcESaIcEEE.exit.i

_ZN6google8protobuf8internal14WireFormatLite9BytesSizeERKNSt7__cxx1112basic_stringIcSt11char_traitsIcESaIcEEE.exit.i: ; preds = %if.else.i.i.i, %if.then.i
  %retval.0.i.i.i = phi i32 [ %6, %if.else.i.i.i ], [ 2, %if.then.i ]
  %call3.i.i = tail call noundef i64 @_ZNKSt7__cxx1112basic_stringIcSt11char_traitsIcESaIcEE4sizeEv(ptr noundef nonnull align 8 dereferenceable(32) %5) #14
  %7 = trunc i64 %call3.i.i to i32
  %add.i = add i32 %retval.0.i.i.i, %7
  %.pre.i = load i32, ptr %_has_bits_, align 8
  br label %if.end.i

if.end.i:                                         ; preds = %_ZN6google8protobuf8internal14WireFormatLite9BytesSizeERKNSt7__cxx1112basic_stringIcSt11char_traitsIcESaIcEEE.exit.i, %if.else
  %8 = phi i32 [ %.pre.i, %_ZN6google8protobuf8internal14WireFormatLite9BytesSizeERKNSt7__cxx1112basic_stringIcSt11char_traitsIcESaIcEEE.exit.i ], [ %0, %if.else ]
  %total_size.0.i = phi i32 [ %add.i, %_ZN6google8protobuf8internal14WireFormatLite9BytesSizeERKNSt7__cxx1112basic_stringIcSt11char_traitsIcESaIcEEE.exit.i ], [ 0, %if.else ]
  %and.i4.i = and i32 %8, 2
  %cmp.i5.not.i = icmp eq i32 %and.i4.i, 0
  br i1 %cmp.i5.not.i, label %if.end, label %if.then6.i

if.then6.i:                                       ; preds = %if.end.i
  %timestamp_.i.i = getelementptr inbounds i8, ptr %this, i64 40
  %9 = load i64, ptr %timestamp_.i.i, align 8
  %call.i6.i = tail call noundef i32 @_ZN6google8protobuf2io17CodedOutputStream12VarintSize64Em(i64 noundef %9)
  %add9.i = add i32 %total_size.0.i, 1
  %add10.i = add i32 %add9.i, %call.i6.i
  br label %if.end

if.end:                                           ; preds = %if.then6.i, %if.end.i, %_ZN6google8protobuf8internal14WireFormatLite9BytesSizeERKNSt7__cxx1112basic_stringIcSt11char_traitsIcESaIcEEE.exit
  %total_size.0 = phi i32 [ %add7, %_ZN6google8protobuf8internal14WireFormatLite9BytesSizeERKNSt7__cxx1112basic_stringIcSt11char_traitsIcESaIcEEE.exit ], [ %add10.i, %if.then6.i ], [ %total_size.0.i, %if.end.i ]
  %10 = load i32, ptr %_has_bits_, align 8
  %and.i = and i32 %10, 4
  %cmp.i.not = icmp eq i32 %and.i, 0
  br i1 %cmp.i.not, label %if.end15, label %if.then11

if.then11:                                        ; preds = %if.end
  %cached_network_parameters_ = getelementptr inbounds i8, ptr %this, i64 48
  %11 = load ptr, ptr %cached_network_parameters_, align 8
  %call.i9 = tail call noundef i32 @_ZNK3net23CachedNetworkParameters8ByteSizeEv(ptr noundef nonnull align 8 dereferenceable(72) %11)
  %cmp.i.i.i10 = icmp ult i32 %call.i9, 128
  br i1 %cmp.i.i.i10, label %_ZN6google8protobuf8internal14WireFormatLite20MessageSizeNoVirtualIN3net23CachedNetworkParametersEEEiRKT_.exit, label %if.else.i.i.i11

if.else.i.i.i11:                                  ; preds = %if.then11
  %call.i.i.i12 = tail call noundef i32 @_ZN6google8protobuf2io17CodedOutputStream20VarintSize32FallbackEj(i32 noundef %call.i9)
  br label %_ZN6google8protobuf8internal14WireFormatLite20MessageSizeNoVirtualIN3net23CachedNetworkParametersEEEiRKT_.exit

_ZN6google8protobuf8internal14WireFormatLite20MessageSizeNoVirtualIN3net23CachedNetworkParametersEEEiRKT_.exit: ; preds = %if.then11, %if.else.i.i.i11
  %retval.0.i.i.i13 = phi i32 [ %call.i.i.i12, %if.else.i.i.i11 ], [ 1, %if.then11 ]
  %add.i.i = add i32 %total_size.0, 1
  %add13 = add i32 %add.i.i, %call.i9
  %add14 = add i32 %add13, %retval.0.i.i.i13
  br label %if.end15

if.end15:                                         ; preds = %_ZN6google8protobuf8internal14WireFormatLite20MessageSizeNoVirtualIN3net23CachedNetworkParametersEEEiRKT_.exit, %if.end
  %total_size.1 = phi i32 [ %add14, %_ZN6google8protobuf8internal14WireFormatLite20MessageSizeNoVirtualIN3net23CachedNetworkParametersEEEiRKT_.exit ], [ %total_size.0, %if.end ]
  %_unknown_fields_.i = getelementptr inbounds i8, ptr %this, i64 8
  %12 = load ptr, ptr %_unknown_fields_.i, align 8
  %call17 = tail call noundef i64 @_ZNKSt7__cxx1112basic_stringIcSt11char_traitsIcESaIcEE4sizeEv(ptr noundef nonnull align 8 dereferenceable(32) %12) #14
  %13 = trunc i64 %call17 to i32
  %conv19 = add i32 %total_size.1, %13
  %_cached_size_ = getelementptr inbounds i8, ptr %this, i64 28
  store i32 %conv19, ptr %_cached_size_, align 4
  ret i32 %conv19
}